target datalayout = "e-m:e-p270:32:32-p271:32:32-p272:64:64-i64:64-i128:128-f80:128-n8:16:32:64-S128"
target triple = "x86_64-pc-linux-gnu"

@initialized_engines = internal global ptr null, align 8

; Function Attrs: inlinehint nounwind uwtable
define internal void @sk_ENGINE_free(ptr noundef %0) #3 {
  %2 = alloca ptr, align 8
  store ptr %0, ptr %2, align 8, !tbaa !21
  %3 = load ptr, ptr %2, align 8, !tbaa !21
  call void @OPENSSL_sk_free(ptr noundef %3)
  ret void
}

; Function Attrs: inlinehint nounwind uwtable
define internal ptr @sk_ENGINE_pop(ptr noundef %0) #3 {
  %2 = alloca ptr, align 8
  store ptr %0, ptr %2, align 8, !tbaa !21
  %3 = load ptr, ptr %2, align 8, !tbaa !21
  %4 = call ptr @OPENSSL_sk_pop(ptr noundef %3)
  ret ptr %4
}

; Function Attrs: nounwind uwtable
define internal void @int_engine_module_finish(ptr noundef %0) #0 {
  %2 = alloca ptr, align 8
  %3 = alloca ptr, align 8
  store ptr %0, ptr %2, align 8, !tbaa !3
  call void @llvm.lifetime.start.p0(i64 8, ptr %3) #5
  br label %4

4:                                                ; preds = %8, %1
  %5 = load ptr, ptr @initialized_engines, align 8, !tbaa !21
  %6 = call ptr @sk_ENGINE_pop(ptr noundef %5)
  store ptr %6, ptr %3, align 8, !tbaa !23
  %7 = icmp ne ptr %6, null
  br i1 %7, label %8, label %11

8:                                                ; preds = %4
  %9 = load ptr, ptr %3, align 8, !tbaa !23
  %10 = call i32 @ENGINE_finish(ptr noundef %9)
  br label %4, !llvm.loop !25

11:                                               ; preds = %4
  %12 = load ptr, ptr @initialized_engines, align 8, !tbaa !21
  call void @sk_ENGINE_free(ptr noundef %12)
  store ptr null, ptr @initialized_engines, align 8, !tbaa !21
  call void @llvm.lifetime.end.p0(i64 8, ptr %3) #5
  ret void
}