; Function Attrs: nounwind uwtable
define internal void @int_engine_module_finish(ptr readnone captures(none) %0) #0 {
  %2 = load ptr, ptr @initialized_engines, align 8, !tbaa !12
  %3 = tail call ptr @OPENSSL_sk_pop(ptr noundef %2) #4
  %.not1 = icmp eq ptr %3, null
  br i1 %.not1, label %._crit_edge, label %.lr.ph

.lr.ph:                                           ; preds = %1, %.lr.ph
  %4 = phi ptr [ %7, %.lr.ph ], [ %3, %1 ]
  %5 = tail call i32 @ENGINE_finish(ptr noundef nonnull %4) #4
  %6 = load ptr, ptr @initialized_engines, align 8, !tbaa !12
  %7 = tail call ptr @OPENSSL_sk_pop(ptr noundef %6) #4
  %.not = icmp eq ptr %7, null
  br i1 %.not, label %._crit_edge, label %.lr.ph, !llvm.loop !18

._crit_edge:                                      ; preds = %.lr.ph, %1
  %8 = load ptr, ptr @initialized_engines, align 8, !tbaa !12
  tail call void @OPENSSL_sk_free(ptr noundef %8) #4
  store ptr null, ptr @initialized_engines, align 8, !tbaa !12
  ret void
}